; Function Attrs: nounwind uwtable
define internal ptr @method_get(ptr noundef %0, ptr noundef %1, ptr noundef readonly captures(none) %2) #0 {
  %4 = icmp eq ptr %1, null
  br i1 %4, label %5, label %10

5:                                                ; preds = %3
  %6 = load i32, ptr %0, align 8, !tbaa !16
  %7 = icmp slt i32 %6, 0
  br i1 %7, label %_Py_NewRef.exit, label %8

8:                                                ; preds = %5
  %9 = add nuw i32 %6, 1
  store i32 %9, ptr %0, align 8, !tbaa !16
  br label %_Py_NewRef.exit

10:                                               ; preds = %3
  %11 = getelementptr inbounds nuw i8, ptr %0, i64 16
  %12 = load ptr, ptr %11, align 8, !tbaa !10
  %13 = getelementptr i8, ptr %1, i64 8
  %.val5.i = load ptr, ptr %13, align 8, !tbaa !19
  %.not.i.i = icmp eq ptr %.val5.i, %12
  br i1 %.not.i.i, label %28, label %PyObject_TypeCheck.exit.i

PyObject_TypeCheck.exit.i:                        ; preds = %10
  %14 = tail call i32 @PyType_IsSubtype(ptr noundef %.val5.i, ptr noundef %12) #9
  %.not9.i = icmp eq i32 %14, 0
  br i1 %.not9.i, label %15, label %28

15:                                               ; preds = %PyObject_TypeCheck.exit.i
  %16 = load ptr, ptr @PyExc_TypeError, align 8, !tbaa !30
  %17 = getelementptr i8, ptr %0, i64 24
  %.val6.i = load ptr, ptr %17, align 8, !tbaa !17
  %.not.i7.i = icmp eq ptr %.val6.i, null
  br i1 %.not.i7.i, label %descr_check.exit, label %18

18:                                               ; preds = %15
  %19 = getelementptr i8, ptr %.val6.i, i64 8
  %.val.i.i = load ptr, ptr %19, align 8, !tbaa !19
  %20 = getelementptr i8, ptr %.val.i.i, i64 168
  %.val6.i.i = load i64, ptr %20, align 8, !tbaa !20
  %21 = and i64 %.val6.i.i, 268435456
  %.not5.i.i = icmp eq i64 %21, 0
  %spec.select.i.i = select i1 %.not5.i.i, ptr null, ptr %.val6.i
  br label %descr_check.exit

descr_check.exit:                                 ; preds = %15, %18
  %.0.i.i = phi ptr [ null, %15 ], [ %spec.select.i.i, %18 ]
  %22 = load ptr, ptr %11, align 8, !tbaa !10
  %23 = getelementptr inbounds nuw i8, ptr %22, i64 24
  %24 = load ptr, ptr %23, align 8, !tbaa !29
  %.val.i = load ptr, ptr %13, align 8, !tbaa !19
  %25 = getelementptr inbounds nuw i8, ptr %.val.i, i64 24
  %26 = load ptr, ptr %25, align 8, !tbaa !29
  %27 = tail call ptr (ptr, ptr, ...) @PyErr_Format(ptr noundef %16, ptr noundef nonnull @.str.26, ptr noundef %.0.i.i, ptr noundef nonnull @.str.12, ptr noundef %24, ptr noundef %26) #9
  br label %_Py_NewRef.exit

28:                                               ; preds = %PyObject_TypeCheck.exit.i, %10
  %29 = getelementptr inbounds nuw i8, ptr %0, i64 40
  %30 = load ptr, ptr %29, align 8, !tbaa !31
  %31 = getelementptr inbounds nuw i8, ptr %30, i64 16
  %32 = load i32, ptr %31, align 8, !tbaa !33
  %33 = and i32 %32, 512
  %.not = icmp eq i32 %33, 0
  br i1 %.not, label %51, label %34

34:                                               ; preds = %28
  %35 = getelementptr i8, ptr %2, i64 8
  %.val18 = load ptr, ptr %35, align 8, !tbaa !19
  %36 = getelementptr i8, ptr %.val18, i64 168
  %.val18.val = load i64, ptr %36, align 8, !tbaa !20
  %37 = and i64 %.val18.val, 2147483648
  %.not23 = icmp eq i64 %37, 0
  br i1 %.not23, label %41, label %38

38:                                               ; preds = %34
  %39 = load ptr, ptr %11, align 8, !tbaa !35
  %40 = tail call ptr @PyCMethod_New(ptr noundef nonnull %30, ptr noundef nonnull %1, ptr noundef null, ptr noundef %39) #9
  br label %_Py_NewRef.exit

41:                                               ; preds = %34
  %42 = load ptr, ptr @PyExc_TypeError, align 8, !tbaa !30
  %43 = getelementptr i8, ptr %0, i64 24
  %.val17 = load ptr, ptr %43, align 8, !tbaa !17
  %.not.i = icmp eq ptr %.val17, null
  br i1 %.not.i, label %descr_name.exit, label %44

44:                                               ; preds = %41
  %45 = getelementptr i8, ptr %.val17, i64 8
  %.val.i19 = load ptr, ptr %45, align 8, !tbaa !19
  %46 = getelementptr i8, ptr %.val.i19, i64 168
  %.val6.i20 = load i64, ptr %46, align 8, !tbaa !20
  %47 = and i64 %.val6.i20, 268435456
  %.not5.i = icmp eq i64 %47, 0
  %spec.select.i = select i1 %.not5.i, ptr null, ptr %.val17
  br label %descr_name.exit

descr_name.exit:                                  ; preds = %41, %44
  %.0.i21 = phi ptr [ null, %41 ], [ %spec.select.i, %44 ]
  %48 = getelementptr inbounds nuw i8, ptr %.val18, i64 24
  %49 = load ptr, ptr %48, align 8, !tbaa !29
  %50 = tail call ptr (ptr, ptr, ...) @PyErr_Format(ptr noundef %42, ptr noundef nonnull @.str.25, ptr noundef %.0.i21, ptr noundef %49) #9
  br label %_Py_NewRef.exit

51:                                               ; preds = %28
  %52 = tail call ptr @PyCMethod_New(ptr noundef nonnull %30, ptr noundef nonnull %1, ptr noundef null, ptr noundef null) #9
  br label %_Py_NewRef.exit

_Py_NewRef.exit:                                  ; preds = %descr_check.exit, %8, %5, %51, %descr_name.exit, %38
  %.0 = phi ptr [ %40, %38 ], [ null, %descr_name.exit ], [ %52, %51 ], [ null, %descr_check.exit ], [ %0, %5 ], [ %0, %8 ]
  ret ptr %.0
}